target datalayout = "e-m:e-p270:32:32-p271:32:32-p272:64:64-i64:64-i128:128-f80:128-n8:16:32:64-S128"
target triple = "x86_64-pc-linux-gnu"

%struct._zend_executor_globals = type { %struct._zval_struct, %struct._zval_struct, [32 x ptr], ptr, ptr, %struct._zend_array, %struct._zend_array, ptr, i32, i32, ptr, ptr, ptr, ptr, ptr, ptr, i64, ptr, ptr, i32, i32, i64, i32, i32, i32, i8, i8, %struct.zend_atomic_bool_s, %struct.zend_atomic_bool_s, ptr, i64, ptr, ptr, %struct._zend_array, %struct._zend_array, i32, i8, %struct._zval_struct, %struct._zval_struct, %struct._zend_stack, %struct._zend_stack, %struct._zend_stack, ptr, i32, i32, i64, ptr, ptr, ptr, %struct._zend_objects_store, ptr, ptr, ptr, [3 x %struct._zend_op], ptr, i8, i8, i64, i32, i32, ptr, [16 x %struct._HashTableIterator], ptr, %union._zend_function, %struct._zend_op, %struct._zend_array, i64, %struct.zend_get_gc_buffer, ptr, ptr, ptr, i64, i8, i32, ptr, ptr, i64, %struct._zend_call_stack, i64, i64, [6 x ptr] }
%struct.zend_atomic_bool_s = type { i8 }
%struct._zval_struct = type { %union._zend_value, %union.anon.3, %union.anon.6 }
%union._zend_value = type { i64 }
%union.anon.3 = type { i32 }
%union.anon.6 = type { i32 }
%struct._zend_stack = type { i32, i32, i32, ptr }
%struct._zend_objects_store = type { ptr, i32, i32, i32 }
%struct._HashTableIterator = type { ptr, i32, i32 }
%union._zend_function = type { %struct._zend_op_array }
%struct._zend_op_array = type { i8, [3 x i8], i32, ptr, ptr, ptr, i32, i32, ptr, ptr, ptr, ptr, i32, i32, i32, i32, ptr, ptr, ptr, ptr, ptr, i32, i32, ptr, ptr, ptr, i32, i32, i32, i32, ptr, ptr, [6 x ptr] }
%struct._zend_op = type { ptr, %union._znode_op, %union._znode_op, %union._znode_op, i32, i32, i8, i8, i8, i8 }
%union._znode_op = type { i32 }
%struct._zend_array = type { %struct._zend_refcounted_h, %union.anon.0, i32, %union.anon.1, i32, i32, i32, i32, i64, ptr }
%struct._zend_refcounted_h = type { i32, %union.anon }
%union.anon = type { i32 }
%union.anon.0 = type { i32 }
%union.anon.1 = type { ptr }
%struct.zend_get_gc_buffer = type { ptr, ptr, ptr }
%struct._zend_call_stack = type { ptr, i64 }
%struct._spl_SplObjectStorage = type { %struct._zend_array, i64, i32, i64, ptr, %struct._zend_object }
%struct._zend_object = type { %struct._zend_refcounted_h, i32, ptr, ptr, ptr, [1 x %struct._zval_struct] }
%struct._zend_execute_data = type { ptr, ptr, ptr, ptr, %struct._zval_struct, ptr, ptr, ptr, ptr }
%struct._zend_reference = type { %struct._zend_refcounted_h, %struct._zval_struct, %union.zend_property_info_source_list }
%union.zend_property_info_source_list = type { ptr }

@spl_ce_UnexpectedValueException = external global ptr, align 8
@executor_globals = external global %struct._zend_executor_globals, align 8
@.str.9 = private unnamed_addr constant [2 x i8] c"h\00", align 1
@.str.10 = private unnamed_addr constant [43 x i8] c"Incomplete or ill-typed serialization data\00", align 1
@.str.11 = private unnamed_addr constant [23 x i8] c"Odd number of elements\00", align 1
@.str.12 = private unnamed_addr constant [15 x i8] c"Non-object key\00", align 1

; Function Attrs: nounwind uwtable
define internal ptr @spl_object_storage_from_obj(ptr noundef %0) #0 {
  %2 = alloca ptr, align 8
  store ptr %0, ptr %2, align 8
  %3 = load ptr, ptr %2, align 8
  %4 = getelementptr inbounds i8, ptr %3, i64 -88
  ret ptr %4
}

; Function Attrs: nounwind uwtable
define hidden void @zim_SplObjectStorage___unserialize(ptr noundef %0, ptr noundef %1) #0 {
  %3 = alloca ptr, align 8
  %4 = alloca ptr, align 8
  %5 = alloca ptr, align 8
  %6 = alloca ptr, align 8
  %7 = alloca ptr, align 8
  %8 = alloca ptr, align 8
  %9 = alloca ptr, align 8
  %10 = alloca ptr, align 8
  %11 = alloca ptr, align 8
  %12 = alloca ptr, align 8
  %13 = alloca ptr, align 8
  %14 = alloca ptr, align 8
  %15 = alloca ptr, align 8
  %16 = alloca ptr, align 8
  %17 = alloca ptr, align 8
  %18 = alloca i32, align 4
  %19 = alloca i64, align 8
  %20 = alloca ptr, align 8
  store ptr %0, ptr %9, align 8
  store ptr %1, ptr %10, align 8
  %21 = load ptr, ptr %9, align 8
  %22 = getelementptr inbounds %struct._zend_execute_data, ptr %21, i32 0, i32 4
  %23 = getelementptr inbounds %struct._zval_struct, ptr %22, i32 0, i32 0
  %24 = load ptr, ptr %23, align 8
  %25 = call ptr @spl_object_storage_from_obj(ptr noundef %24)
  store ptr %25, ptr %11, align 8
  %26 = load ptr, ptr %9, align 8
  %27 = getelementptr inbounds %struct._zend_execute_data, ptr %26, i32 0, i32 4
  %28 = getelementptr inbounds %struct._zval_struct, ptr %27, i32 0, i32 2
  %29 = load i32, ptr %28, align 4
  %30 = call i32 (i32, ptr, ...) @zend_parse_parameters(i32 noundef %29, ptr noundef @.str.9, ptr noundef %12)
  %31 = icmp eq i32 %30, -1
  br i1 %31, label %32, label %37

32:                                               ; preds = %2
  br label %33

33:                                               ; preds = %32
  %34 = load ptr, ptr getelementptr inbounds (%struct._zend_executor_globals, ptr @executor_globals, i32 0, i32 50), align 8
  %35 = icmp ne ptr %34, null
  call void @llvm.assume(i1 %35)
  br label %179

36:                                               ; No predecessors!
  br label %37

37:                                               ; preds = %36, %2
  %38 = load ptr, ptr %12, align 8
  %39 = call ptr @zend_hash_index_find(ptr noundef %38, i64 noundef 0)
  store ptr %39, ptr %13, align 8
  %40 = load ptr, ptr %12, align 8
  %41 = call ptr @zend_hash_index_find(ptr noundef %40, i64 noundef 1)
  store ptr %41, ptr %14, align 8
  %42 = load ptr, ptr %13, align 8
  %43 = icmp ne ptr %42, null
  br i1 %43, label %44, label %61

44:                                               ; preds = %37
  %45 = load ptr, ptr %14, align 8
  %46 = icmp ne ptr %45, null
  br i1 %46, label %47, label %61

47:                                               ; preds = %44
  %48 = load ptr, ptr %13, align 8
  store ptr %48, ptr %3, align 8
  %49 = load ptr, ptr %3, align 8
  %50 = getelementptr inbounds %struct._zval_struct, ptr %49, i32 0, i32 1
  %51 = load i8, ptr %50, align 8
  %52 = zext i8 %51 to i32
  %53 = icmp ne i32 %52, 7
  br i1 %53, label %61, label %54

54:                                               ; preds = %47
  %55 = load ptr, ptr %14, align 8
  store ptr %55, ptr %4, align 8
  %56 = load ptr, ptr %4, align 8
  %57 = getelementptr inbounds %struct._zval_struct, ptr %56, i32 0, i32 1
  %58 = load i8, ptr %57, align 8
  %59 = zext i8 %58 to i32
  %60 = icmp ne i32 %59, 7
  br i1 %60, label %61, label %68

61:                                               ; preds = %54, %47, %44, %37
  %62 = load ptr, ptr @spl_ce_UnexpectedValueException, align 8
  %63 = call ptr @zend_throw_exception(ptr noundef %62, ptr noundef @.str.10, i64 noundef 0)
  br label %64

64:                                               ; preds = %61
  %65 = load ptr, ptr getelementptr inbounds (%struct._zend_executor_globals, ptr @executor_globals, i32 0, i32 50), align 8
  %66 = icmp ne ptr %65, null
  call void @llvm.assume(i1 %66)
  br label %179

67:                                               ; No predecessors!
  br label %68

68:                                               ; preds = %67, %54
  %69 = load ptr, ptr %13, align 8
  %70 = getelementptr inbounds %struct._zval_struct, ptr %69, i32 0, i32 0
  %71 = load ptr, ptr %70, align 8
  store ptr %71, ptr %8, align 8
  %72 = load ptr, ptr %8, align 8
  %73 = getelementptr inbounds %struct._zend_array, ptr %72, i32 0, i32 5
  %74 = load i32, ptr %73, align 4
  %75 = urem i32 %74, 2
  %76 = icmp ne i32 %75, 0
  br i1 %76, label %77, label %84

77:                                               ; preds = %68
  %78 = load ptr, ptr @spl_ce_UnexpectedValueException, align 8
  %79 = call ptr @zend_throw_exception(ptr noundef %78, ptr noundef @.str.11, i64 noundef 0)
  br label %80

80:                                               ; preds = %77
  %81 = load ptr, ptr getelementptr inbounds (%struct._zend_executor_globals, ptr @executor_globals, i32 0, i32 50), align 8
  %82 = icmp ne ptr %81, null
  call void @llvm.assume(i1 %82)
  br label %179

83:                                               ; No predecessors!
  br label %84

84:                                               ; preds = %83, %68
  store ptr null, ptr %15, align 8
  br label %85

85:                                               ; preds = %84
  %86 = load ptr, ptr %13, align 8
  %87 = getelementptr inbounds %struct._zval_struct, ptr %86, i32 0, i32 0
  %88 = load ptr, ptr %87, align 8
  store ptr %88, ptr %17, align 8
  %89 = load ptr, ptr %17, align 8
  %90 = getelementptr inbounds %struct._zend_array, ptr %89, i32 0, i32 4
  %91 = load i32, ptr %90, align 8
  store i32 %91, ptr %18, align 4
  %92 = load ptr, ptr %17, align 8
  %93 = getelementptr inbounds %struct._zend_array, ptr %92, i32 0, i32 1
  %94 = load i32, ptr %93, align 8
  %95 = xor i32 %94, -1
  %96 = and i32 %95, 4
  %97 = zext i32 %96 to i64
  %98 = mul i64 %97, 4
  %99 = add i64 16, %98
  store i64 %99, ptr %19, align 8
  %100 = load ptr, ptr %17, align 8
  %101 = getelementptr inbounds %struct._zend_array, ptr %100, i32 0, i32 3
  %102 = load ptr, ptr %101, align 8
  store ptr %102, ptr %20, align 8
  br label %103

103:                                              ; preds = %166, %85
  %104 = load i32, ptr %18, align 4
  %105 = icmp ugt i32 %104, 0
  br i1 %105, label %106, label %172

106:                                              ; preds = %103
  %107 = load ptr, ptr %20, align 8
  store ptr %107, ptr %5, align 8
  %108 = load ptr, ptr %5, align 8
  %109 = getelementptr inbounds %struct._zval_struct, ptr %108, i32 0, i32 1
  %110 = load i8, ptr %109, align 8
  %111 = zext i8 %110 to i32
  %112 = icmp eq i32 %111, 0
  %113 = xor i1 %112, true
  %114 = xor i1 %113, true
  %115 = zext i1 %114 to i32
  %116 = sext i32 %115 to i64
  %117 = icmp ne i64 %116, 0
  br i1 %117, label %118, label %119

118:                                              ; preds = %106
  br label %166

119:                                              ; preds = %106
  %120 = load ptr, ptr %20, align 8
  store ptr %120, ptr %16, align 8
  %121 = load ptr, ptr %15, align 8
  %122 = icmp ne ptr %121, null
  br i1 %122, label %123, label %163

123:                                              ; preds = %119
  %124 = load ptr, ptr %15, align 8
  store ptr %124, ptr %6, align 8
  %125 = load ptr, ptr %6, align 8
  %126 = getelementptr inbounds %struct._zval_struct, ptr %125, i32 0, i32 1
  %127 = load i8, ptr %126, align 8
  %128 = zext i8 %127 to i32
  %129 = icmp ne i32 %128, 8
  br i1 %129, label %130, label %137

130:                                              ; preds = %123
  %131 = load ptr, ptr @spl_ce_UnexpectedValueException, align 8
  %132 = call ptr @zend_throw_exception(ptr noundef %131, ptr noundef @.str.12, i64 noundef 0)
  br label %133

133:                                              ; preds = %130
  %134 = load ptr, ptr getelementptr inbounds (%struct._zend_executor_globals, ptr @executor_globals, i32 0, i32 50), align 8
  %135 = icmp ne ptr %134, null
  call void @llvm.assume(i1 %135)
  br label %179

136:                                              ; No predecessors!
  br label %137

137:                                              ; preds = %136, %123
  br label %138

138:                                              ; preds = %137
  %139 = load ptr, ptr %16, align 8
  store ptr %139, ptr %7, align 8
  %140 = load ptr, ptr %7, align 8
  %141 = getelementptr inbounds %struct._zval_struct, ptr %140, i32 0, i32 1
  %142 = load i8, ptr %141, align 8
  %143 = zext i8 %142 to i32
  %144 = icmp eq i32 %143, 10
  %145 = xor i1 %144, true
  %146 = xor i1 %145, true
  %147 = zext i1 %146 to i32
  %148 = sext i32 %147 to i64
  %149 = icmp ne i64 %148, 0
  br i1 %149, label %150, label %155

150:                                              ; preds = %138
  %151 = load ptr, ptr %16, align 8
  %152 = getelementptr inbounds %struct._zval_struct, ptr %151, i32 0, i32 0
  %153 = load ptr, ptr %152, align 8
  %154 = getelementptr inbounds %struct._zend_reference, ptr %153, i32 0, i32 1
  store ptr %154, ptr %16, align 8
  br label %155

155:                                              ; preds = %150, %138
  br label %156

156:                                              ; preds = %155
  %157 = load ptr, ptr %11, align 8
  %158 = load ptr, ptr %15, align 8
  %159 = getelementptr inbounds %struct._zval_struct, ptr %158, i32 0, i32 0
  %160 = load ptr, ptr %159, align 8
  %161 = load ptr, ptr %16, align 8
  %162 = call ptr @spl_object_storage_attach(ptr noundef %157, ptr noundef %160, ptr noundef %161)
  store ptr null, ptr %15, align 8
  br label %165

163:                                              ; preds = %119
  %164 = load ptr, ptr %16, align 8
  store ptr %164, ptr %15, align 8
  br label %165

165:                                              ; preds = %163, %156
  br label %166

166:                                              ; preds = %165, %118
  %167 = load ptr, ptr %20, align 8
  %168 = load i64, ptr %19, align 8
  %169 = getelementptr inbounds i8, ptr %167, i64 %168
  store ptr %169, ptr %20, align 8
  %170 = load i32, ptr %18, align 4
  %171 = add i32 %170, -1
  store i32 %171, ptr %18, align 4
  br label %103

172:                                              ; preds = %103
  br label %173

173:                                              ; preds = %172
  %174 = load ptr, ptr %11, align 8
  %175 = getelementptr inbounds %struct._spl_SplObjectStorage, ptr %174, i32 0, i32 5
  %176 = load ptr, ptr %14, align 8
  %177 = getelementptr inbounds %struct._zval_struct, ptr %176, i32 0, i32 0
  %178 = load ptr, ptr %177, align 8
  call void @object_properties_load(ptr noundef %175, ptr noundef %178)
  br label %179

179:                                              ; preds = %173, %133, %80, %64, %33
  ret void
}