; Function Attrs: nounwind uwtable
define hidden void @zim_SplObjectStorage___unserialize(ptr nocapture noundef readonly %0, ptr nocapture readnone %1) #0 {
  %3 = alloca ptr, align 8
  %4 = getelementptr inbounds i8, ptr %0, i64 32
  %5 = load ptr, ptr %4, align 8
  %6 = getelementptr inbounds i8, ptr %5, i64 -88
  %7 = getelementptr inbounds i8, ptr %0, i64 44
  %8 = load i32, ptr %7, align 4
  %9 = call i32 (i32, ptr, ...) @zend_parse_parameters(i32 noundef %8, ptr noundef nonnull @.str.9, ptr noundef nonnull %3) #10
  %10 = icmp eq i32 %9, -1
  br i1 %10, label %11, label %14

11:                                               ; preds = %2
  %12 = load ptr, ptr getelementptr inbounds (%struct._zend_executor_globals, ptr @executor_globals, i64 0, i32 50), align 8
  %13 = icmp ne ptr %12, null
  call void @llvm.assume(i1 %13)
  br label %77

14:                                               ; preds = %2
  %15 = load ptr, ptr %3, align 8
  %16 = call ptr @zend_hash_index_find(ptr noundef %15, i64 noundef 0) #10
  %17 = load ptr, ptr %3, align 8
  %18 = call ptr @zend_hash_index_find(ptr noundef %17, i64 noundef 1) #10
  %19 = icmp ne ptr %16, null
  %20 = icmp ne ptr %18, null
  %or.cond = select i1 %19, i1 %20, i1 false
  br i1 %or.cond, label %21, label %27

21:                                               ; preds = %14
  %22 = getelementptr inbounds i8, ptr %16, i64 8
  %23 = load i8, ptr %22, align 8
  %.not = icmp eq i8 %23, 7
  br i1 %.not, label %24, label %27

24:                                               ; preds = %21
  %25 = getelementptr inbounds i8, ptr %18, i64 8
  %26 = load i8, ptr %25, align 8
  %.not39 = icmp eq i8 %26, 7
  br i1 %.not39, label %32, label %27

27:                                               ; preds = %24, %21, %14
  %28 = load ptr, ptr @spl_ce_UnexpectedValueException, align 8
  %29 = call ptr @zend_throw_exception(ptr noundef %28, ptr noundef nonnull @.str.10, i64 noundef 0) #10
  %30 = load ptr, ptr getelementptr inbounds (%struct._zend_executor_globals, ptr @executor_globals, i64 0, i32 50), align 8
  %31 = icmp ne ptr %30, null
  call void @llvm.assume(i1 %31)
  br label %77

32:                                               ; preds = %24
  %33 = load ptr, ptr %16, align 8
  %34 = getelementptr inbounds i8, ptr %33, i64 28
  %35 = load i32, ptr %34, align 4
  %36 = and i32 %35, 1
  %.not40 = icmp eq i32 %36, 0
  br i1 %.not40, label %42, label %37

37:                                               ; preds = %32
  %38 = load ptr, ptr @spl_ce_UnexpectedValueException, align 8
  %39 = call ptr @zend_throw_exception(ptr noundef %38, ptr noundef nonnull @.str.11, i64 noundef 0) #10
  %40 = load ptr, ptr getelementptr inbounds (%struct._zend_executor_globals, ptr @executor_globals, i64 0, i32 50), align 8
  %41 = icmp ne ptr %40, null
  call void @llvm.assume(i1 %41)
  br label %77

42:                                               ; preds = %32
  %43 = getelementptr inbounds i8, ptr %33, i64 24
  %44 = load i32, ptr %43, align 8
  %45 = getelementptr inbounds i8, ptr %33, i64 8
  %46 = load i32, ptr %45, align 8
  %47 = shl i32 %46, 2
  %48 = and i32 %47, 16
  %49 = xor i32 %48, 16
  %narrow = add nuw nsw i32 %49, 16
  %50 = zext nneg i32 %narrow to i64
  %.not4144 = icmp eq i32 %44, 0
  br i1 %.not4144, label %._crit_edge, label %.lr.ph.preheader

.lr.ph.preheader:                                 ; preds = %42
  %51 = getelementptr inbounds i8, ptr %33, i64 16
  %52 = load ptr, ptr %51, align 8
  br label %.lr.ph

.lr.ph:                                           ; preds = %.lr.ph.preheader, %73
  %.047 = phi ptr [ %74, %73 ], [ %52, %.lr.ph.preheader ]
  %.03346 = phi ptr [ %.1, %73 ], [ null, %.lr.ph.preheader ]
  %.03445 = phi i32 [ %75, %73 ], [ %44, %.lr.ph.preheader ]
  %53 = getelementptr inbounds i8, ptr %.047, i64 8
  %54 = load i8, ptr %53, align 8
  %55 = icmp eq i8 %54, 0
  br i1 %55, label %73, label %56

56:                                               ; preds = %.lr.ph
  %.not42 = icmp eq ptr %.03346, null
  br i1 %.not42, label %73, label %57

57:                                               ; preds = %56
  %58 = getelementptr inbounds i8, ptr %.03346, i64 8
  %59 = load i8, ptr %58, align 8
  %.not43 = icmp eq i8 %59, 8
  br i1 %.not43, label %65, label %60

60:                                               ; preds = %57
  %61 = load ptr, ptr @spl_ce_UnexpectedValueException, align 8
  %62 = call ptr @zend_throw_exception(ptr noundef %61, ptr noundef nonnull @.str.12, i64 noundef 0) #10
  %63 = load ptr, ptr getelementptr inbounds (%struct._zend_executor_globals, ptr @executor_globals, i64 0, i32 50), align 8
  %64 = icmp ne ptr %63, null
  call void @llvm.assume(i1 %64)
  br label %77

65:                                               ; preds = %57
  %66 = icmp eq i8 %54, 10
  br i1 %66, label %67, label %70

67:                                               ; preds = %65
  %68 = load ptr, ptr %.047, align 8
  %69 = getelementptr inbounds i8, ptr %68, i64 8
  br label %70

70:                                               ; preds = %65, %67
  %.035 = phi ptr [ %69, %67 ], [ %.047, %65 ]
  %71 = load ptr, ptr %.03346, align 8
  %72 = call fastcc ptr @spl_object_storage_attach(ptr noundef nonnull %6, ptr noundef %71, ptr noundef nonnull %.035)
  br label %73

73:                                               ; preds = %56, %70, %.lr.ph
  %.1 = phi ptr [ %.03346, %.lr.ph ], [ null, %70 ], [ %.047, %56 ]
  %74 = getelementptr inbounds i8, ptr %.047, i64 %50
  %75 = add i32 %.03445, -1
  %.not41 = icmp eq i32 %75, 0
  br i1 %.not41, label %._crit_edge, label %.lr.ph

._crit_edge:                                      ; preds = %73, %42
  %76 = load ptr, ptr %18, align 8
  call void @object_properties_load(ptr noundef nonnull %5, ptr noundef %76) #10
  br label %77

77:                                               ; preds = %._crit_edge, %60, %37, %27, %11
  ret void
}